target datalayout = "e-m:e-p270:32:32-p271:32:32-p272:64:64-i64:64-i128:128-f80:128-n8:16:32:64-S128"
target triple = "x86_64-pc-linux-gnu"

%struct.expand_data = type { %struct.object_id, i32, i64, i64, %struct.object_id, ptr, %struct.object_info }
%struct.object_id = type { [32 x i8], i32 }
%struct.object_info = type { ptr, ptr, ptr, ptr, ptr, ptr, i32, %union.anon.12 }
%union.anon.12 = type { %struct.anon.13 }
%struct.anon.13 = type { ptr, i64, i32 }
%struct.used_atom = type { i32, ptr, i32, i32, %union.anon }
%union.anon = type { %struct.anon.1 }
%struct.anon.1 = type { i32, %struct.process_trailer_options, ptr, i32 }
%struct.process_trailer_options = type { i32, i32, i32, i32, i32, i32, i32, i32, ptr, ptr, ptr, ptr }
%struct.anon.5 = type { i32 }

@.str.24 = private unnamed_addr constant [1 x i8] zeroinitializer, align 1
@git_gettext_enabled = external global i32, align 4
@oi_deref = internal global %struct.expand_data zeroinitializer, align 8
@oi = internal global %struct.expand_data zeroinitializer, align 8
@.str.30 = private unnamed_addr constant [11 x i8] c"objectsize\00", align 1
@.str.81 = private unnamed_addr constant [35 x i8] c"unrecognized %%(%.*s) argument: %s\00", align 1
@.str.83 = private unnamed_addr constant [5 x i8] c"disk\00", align 1

; Function Attrs: inlinehint nounwind uwtable
define internal ptr @_(ptr noundef %0) #1 {
  %2 = alloca ptr, align 8
  %3 = alloca ptr, align 8
  store ptr %0, ptr %3, align 8, !tbaa !13
  %4 = load ptr, ptr %3, align 8, !tbaa !13
  %5 = load i8, ptr %4, align 1, !tbaa !14
  %6 = icmp ne i8 %5, 0
  br i1 %6, label %8, label %7

7:                                                ; preds = %1
  store ptr @.str.24, ptr %2, align 8
  br label %16

8:                                                ; preds = %1
  %9 = load i32, ptr @git_gettext_enabled, align 4, !tbaa !15
  %10 = icmp ne i32 %9, 0
  br i1 %10, label %13, label %11

11:                                               ; preds = %8
  %12 = load ptr, ptr %3, align 8, !tbaa !13
  store ptr %12, ptr %2, align 8
  br label %16

13:                                               ; preds = %8
  %14 = load ptr, ptr %3, align 8, !tbaa !13
  %15 = call ptr @dcgettext(ptr noundef null, ptr noundef %14, i32 noundef 5) #11
  store ptr %15, ptr %2, align 8
  br label %16

16:                                               ; preds = %13, %11, %7
  %17 = load ptr, ptr %2, align 8
  ret ptr %17
}

; Function Attrs: nounwind uwtable
define internal i32 @err_bad_arg(ptr noundef %0, ptr noundef %1, ptr noundef %2) #0 {
  %4 = alloca ptr, align 8
  %5 = alloca ptr, align 8
  %6 = alloca ptr, align 8
  %7 = alloca i64, align 8
  store ptr %0, ptr %4, align 8, !tbaa !36
  store ptr %1, ptr %5, align 8, !tbaa !13
  store ptr %2, ptr %6, align 8, !tbaa !13
  call void @llvm.lifetime.start.p0(i64 8, ptr %7) #11
  %8 = load ptr, ptr %5, align 8, !tbaa !13
  %9 = call ptr @strchrnul(ptr noundef %8, i32 noundef 58) #12
  %10 = load ptr, ptr %5, align 8, !tbaa !13
  %11 = ptrtoint ptr %9 to i64
  %12 = ptrtoint ptr %10 to i64
  %13 = sub i64 %11, %12
  store i64 %13, ptr %7, align 8, !tbaa !71
  %14 = load ptr, ptr %4, align 8, !tbaa !36
  %15 = call ptr @_(ptr noundef @.str.81)
  %16 = load i64, ptr %7, align 8, !tbaa !71
  %17 = trunc i64 %16 to i32
  %18 = load ptr, ptr %5, align 8, !tbaa !13
  %19 = load ptr, ptr %6, align 8, !tbaa !13
  call void (ptr, ptr, ...) @strbuf_addf(ptr noundef %14, ptr noundef %15, i32 noundef %17, ptr noundef %18, ptr noundef %19)
  call void @llvm.lifetime.end.p0(i64 8, ptr %7) #11
  ret i32 -1
}

; Function Attrs: nounwind uwtable
define internal i32 @objectsize_atom_parser(ptr noundef %0, ptr noundef %1, ptr noundef %2, ptr noundef %3) #0 {
  %5 = alloca i32, align 4
  %6 = alloca ptr, align 8
  %7 = alloca ptr, align 8
  %8 = alloca ptr, align 8
  %9 = alloca ptr, align 8
  store ptr %0, ptr %6, align 8, !tbaa !17
  store ptr %1, ptr %7, align 8, !tbaa !26
  store ptr %2, ptr %8, align 8, !tbaa !13
  store ptr %3, ptr %9, align 8, !tbaa !36
  %10 = load ptr, ptr %8, align 8, !tbaa !13
  %11 = icmp ne ptr %10, null
  br i1 %11, label %25, label %12

12:                                               ; preds = %4
  %13 = load ptr, ptr %7, align 8, !tbaa !26
  %14 = getelementptr inbounds nuw %struct.used_atom, ptr %13, i32 0, i32 4
  %15 = getelementptr inbounds nuw %struct.anon.5, ptr %14, i32 0, i32 0
  store i32 0, ptr %15, align 8, !tbaa !14
  %16 = load ptr, ptr %7, align 8, !tbaa !26
  %17 = getelementptr inbounds nuw %struct.used_atom, ptr %16, i32 0, i32 1
  %18 = load ptr, ptr %17, align 8, !tbaa !31
  %19 = load i8, ptr %18, align 1, !tbaa !14
  %20 = sext i8 %19 to i32
  %21 = icmp eq i32 %20, 42
  br i1 %21, label %22, label %23

22:                                               ; preds = %12
  store ptr getelementptr inbounds nuw (%struct.expand_data, ptr @oi_deref, i32 0, i32 2), ptr getelementptr inbounds nuw (%struct.object_info, ptr getelementptr inbounds nuw (%struct.expand_data, ptr @oi_deref, i32 0, i32 6), i32 0, i32 1), align 8, !tbaa !203
  br label %24

23:                                               ; preds = %12
  store ptr getelementptr inbounds nuw (%struct.expand_data, ptr @oi, i32 0, i32 2), ptr getelementptr inbounds nuw (%struct.object_info, ptr getelementptr inbounds nuw (%struct.expand_data, ptr @oi, i32 0, i32 6), i32 0, i32 1), align 8, !tbaa !203
  br label %24

24:                                               ; preds = %23, %22
  br label %47

25:                                               ; preds = %4
  %26 = load ptr, ptr %8, align 8, !tbaa !13
  %27 = call i32 @strcmp(ptr noundef %26, ptr noundef @.str.83) #12
  %28 = icmp ne i32 %27, 0
  br i1 %28, label %42, label %29

29:                                               ; preds = %25
  %30 = load ptr, ptr %7, align 8, !tbaa !26
  %31 = getelementptr inbounds nuw %struct.used_atom, ptr %30, i32 0, i32 4
  %32 = getelementptr inbounds nuw %struct.anon.5, ptr %31, i32 0, i32 0
  store i32 1, ptr %32, align 8, !tbaa !14
  %33 = load ptr, ptr %7, align 8, !tbaa !26
  %34 = getelementptr inbounds nuw %struct.used_atom, ptr %33, i32 0, i32 1
  %35 = load ptr, ptr %34, align 8, !tbaa !31
  %36 = load i8, ptr %35, align 1, !tbaa !14
  %37 = sext i8 %36 to i32
  %38 = icmp eq i32 %37, 42
  br i1 %38, label %39, label %40

39:                                               ; preds = %29
  store ptr getelementptr inbounds nuw (%struct.expand_data, ptr @oi_deref, i32 0, i32 3), ptr getelementptr inbounds nuw (%struct.object_info, ptr getelementptr inbounds nuw (%struct.expand_data, ptr @oi_deref, i32 0, i32 6), i32 0, i32 2), align 8, !tbaa !204
  br label %41

40:                                               ; preds = %29
  store ptr getelementptr inbounds nuw (%struct.expand_data, ptr @oi, i32 0, i32 3), ptr getelementptr inbounds nuw (%struct.object_info, ptr getelementptr inbounds nuw (%struct.expand_data, ptr @oi, i32 0, i32 6), i32 0, i32 2), align 8, !tbaa !204
  br label %41

41:                                               ; preds = %40, %39
  br label %46

42:                                               ; preds = %25
  %43 = load ptr, ptr %9, align 8, !tbaa !36
  %44 = load ptr, ptr %8, align 8, !tbaa !13
  %45 = call i32 @err_bad_arg(ptr noundef %43, ptr noundef @.str.30, ptr noundef %44)
  store i32 %45, ptr %5, align 4
  br label %48

46:                                               ; preds = %41
  br label %47

47:                                               ; preds = %46, %24
  store i32 0, ptr %5, align 4
  br label %48

48:                                               ; preds = %47, %42
  %49 = load i32, ptr %5, align 4
  ret i32 %49
}