; Function Attrs: nounwind uwtable
define internal range(i32 -1, 1) i32 @objectsize_atom_parser(ptr readnone captures(none) %0, ptr noundef captures(none) %1, ptr noundef %2, ptr noundef %3) #0 {
  %.not = icmp eq ptr %2, null
  br i1 %.not, label %5, label %13

5:                                                ; preds = %4
  %6 = getelementptr inbounds nuw i8, ptr %1, i64 24
  store i32 0, ptr %6, align 8, !tbaa !15
  %7 = getelementptr inbounds nuw i8, ptr %1, i64 8
  %8 = load ptr, ptr %7, align 8, !tbaa !30
  %9 = load i8, ptr %8, align 1, !tbaa !15
  %10 = icmp eq i8 %9, 42
  br i1 %10, label %11, label %12

11:                                               ; preds = %5
  store ptr getelementptr inbounds nuw (i8, ptr @oi_deref, i64 40), ptr getelementptr inbounds nuw (i8, ptr @oi_deref, i64 112), align 8, !tbaa !203
  br label %31

12:                                               ; preds = %5
  store ptr getelementptr inbounds nuw (i8, ptr @oi, i64 40), ptr getelementptr inbounds nuw (i8, ptr @oi, i64 112), align 8, !tbaa !203
  br label %31

13:                                               ; preds = %4
  %14 = tail call i32 @strcmp(ptr noundef nonnull dereferenceable(1) %2, ptr noundef nonnull dereferenceable(5) @.str.83) #24
  %.not9 = icmp eq i32 %14, 0
  br i1 %.not9, label %15, label %23

15:                                               ; preds = %13
  %16 = getelementptr inbounds nuw i8, ptr %1, i64 24
  store i32 1, ptr %16, align 8, !tbaa !15
  %17 = getelementptr inbounds nuw i8, ptr %1, i64 8
  %18 = load ptr, ptr %17, align 8, !tbaa !30
  %19 = load i8, ptr %18, align 1, !tbaa !15
  %20 = icmp eq i8 %19, 42
  br i1 %20, label %21, label %22

21:                                               ; preds = %15
  store ptr getelementptr inbounds nuw (i8, ptr @oi_deref, i64 48), ptr getelementptr inbounds nuw (i8, ptr @oi_deref, i64 120), align 8, !tbaa !204
  br label %31

22:                                               ; preds = %15
  store ptr getelementptr inbounds nuw (i8, ptr @oi, i64 48), ptr getelementptr inbounds nuw (i8, ptr @oi, i64 120), align 8, !tbaa !204
  br label %31

23:                                               ; preds = %13
  %24 = tail call ptr @strchrnul(ptr noundef nonnull @.str.30, i32 noundef 58) #24
  %25 = load i32, ptr @git_gettext_enabled, align 4, !tbaa !4
  %.not4.i.i = icmp eq i32 %25, 0
  br i1 %.not4.i.i, label %err_bad_arg.exit, label %26

26:                                               ; preds = %23
  %27 = tail call ptr @dcgettext(ptr noundef null, ptr noundef nonnull @.str.81, i32 noundef 5) #23
  br label %err_bad_arg.exit

err_bad_arg.exit:                                 ; preds = %23, %26
  %.0.i.i = phi ptr [ %27, %26 ], [ @.str.81, %23 ]
  %28 = ptrtoint ptr %24 to i64
  %29 = trunc i64 %28 to i32
  %30 = sub i32 %29, ptrtoint (ptr @.str.30 to i32)
  tail call void (ptr, ptr, ...) @strbuf_addf(ptr noundef %3, ptr noundef %.0.i.i, i32 noundef %30, ptr noundef nonnull @.str.30, ptr noundef nonnull %2) #23
  br label %31

31:                                               ; preds = %12, %11, %21, %22, %err_bad_arg.exit
  %.0 = phi i32 [ -1, %err_bad_arg.exit ], [ 0, %22 ], [ 0, %21 ], [ 0, %11 ], [ 0, %12 ]
  ret i32 %.0
}